target datalayout = "e-m:e-p270:32:32-p271:32:32-p272:64:64-i64:64-i128:128-f80:128-n8:16:32:64-S128"
target triple = "x86_64-pc-linux-gnu"

%"struct.llvm::PatternMatch::bind_ty" = type { ptr }
%"struct.llvm::SimplifyQuery" = type <{ ptr, ptr, ptr, ptr, ptr, ptr, ptr, %"struct.llvm::InstrInfoQuery", i8, [6 x i8] }>
%"struct.llvm::InstrInfoQuery" = type { i8 }
%"class.llvm::FastMathFlags" = type { i32 }
%"class.llvm::Value" = type { i8, i8, i16, i32, ptr, ptr }
%"struct.llvm::PatternMatch::FNeg_match.398" = type { %"struct.llvm::PatternMatch::bind_ty" }

; Function Attrs: mustprogress nounwind uwtable
define linkonce_odr hidden noundef i32 @_ZNK4llvm5Value10getValueIDEv(ptr noundef nonnull align 8 dereferenceable(24) %0) #1 comdat align 2 {
  %2 = alloca ptr, align 8
  store ptr %0, ptr %2, align 8
  %3 = load ptr, ptr %2, align 8
  %4 = getelementptr inbounds nuw %"class.llvm::Value", ptr %3, i32 0, i32 0
  %5 = load i8, ptr %4, align 8
  %6 = zext i8 %5 to i32
  ret i32 %6
}

; Function Attrs: mustprogress nounwind uwtable
define linkonce_odr hidden noundef zeroext i1 @_ZN4llvm8isa_implINS_8ConstantENS_5ValueEvE4doitERKS2_(ptr noundef nonnull align 8 dereferenceable(24) %0) #1 comdat align 2 {
  %2 = alloca ptr, align 8
  store ptr %0, ptr %2, align 8
  %3 = load ptr, ptr %2, align 8
  %4 = call noundef i32 @_ZNK4llvm5Value10getValueIDEv(ptr noundef nonnull align 8 dereferenceable(24) %3)
  %5 = icmp ule i32 %4, 21
  ret i1 %5
}

; Function Attrs: mustprogress nounwind uwtable
define linkonce_odr hidden noundef zeroext i1 @_ZN4llvm11isa_impl_clINS_8ConstantEPKNS_5ValueEE4doitES4_(ptr noundef %0) #1 comdat align 2 {
  %2 = alloca ptr, align 8
  store ptr %0, ptr %2, align 8
  %3 = load ptr, ptr %2, align 8
  %4 = call noundef zeroext i1 @_ZN4llvm8isa_implINS_8ConstantENS_5ValueEvE4doitERKS2_(ptr noundef nonnull align 8 dereferenceable(24) %3)
  ret i1 %4
}

; Function Attrs: mustprogress nounwind uwtable
define linkonce_odr hidden noundef nonnull align 8 dereferenceable(8) ptr @_ZN4llvm13simplify_typeIPNS_5ValueEE18getSimplifiedValueERS2_(ptr noundef nonnull align 8 dereferenceable(8) %0) #1 comdat align 2 {
  %2 = alloca ptr, align 8
  store ptr %0, ptr %2, align 8
  %3 = load ptr, ptr %2, align 8
  ret ptr %3
}

; Function Attrs: mustprogress nounwind uwtable
define linkonce_odr hidden noundef zeroext i1 @_ZN4llvm13isa_impl_wrapINS_8ConstantEPKNS_5ValueES4_E4doitERKS4_(ptr noundef nonnull align 8 dereferenceable(8) %0) #1 comdat align 2 {
  %2 = alloca ptr, align 8
  store ptr %0, ptr %2, align 8
  %3 = load ptr, ptr %2, align 8
  %4 = load ptr, ptr %3, align 8
  %5 = call noundef zeroext i1 @_ZN4llvm11isa_impl_clINS_8ConstantEPKNS_5ValueEE4doitES4_(ptr noundef %4)
  ret i1 %5
}

; Function Attrs: mustprogress nounwind uwtable
define linkonce_odr hidden noundef ptr @_ZN4llvm13simplify_typeIKPNS_5ValueEE18getSimplifiedValueERS3_(ptr noundef nonnull align 8 dereferenceable(8) %0) #1 comdat align 2 {
  %2 = alloca ptr, align 8
  store ptr %0, ptr %2, align 8
  %3 = load ptr, ptr %2, align 8
  %4 = call noundef nonnull align 8 dereferenceable(8) ptr @_ZN4llvm13simplify_typeIPNS_5ValueEE18getSimplifiedValueERS2_(ptr noundef nonnull align 8 dereferenceable(8) %3)
  %5 = load ptr, ptr %4, align 8
  ret ptr %5
}

; Function Attrs: mustprogress nounwind uwtable
define linkonce_odr hidden noundef ptr @_ZN4llvm16cast_convert_valINS_8ConstantEPNS_5ValueES3_E4doitEPKS2_(ptr noundef %0) #1 comdat align 2 {
  %2 = alloca ptr, align 8
  store ptr %0, ptr %2, align 8
  %3 = load ptr, ptr %2, align 8
  ret ptr %3
}

; Function Attrs: mustprogress nounwind uwtable
define linkonce_odr hidden noundef zeroext i1 @_ZN4llvm13isa_impl_wrapINS_8ConstantEKPNS_5ValueEPKS2_E4doitERS4_(ptr noundef nonnull align 8 dereferenceable(8) %0) #1 comdat align 2 {
  %2 = alloca ptr, align 8
  %3 = alloca ptr, align 8
  store ptr %0, ptr %2, align 8
  %4 = load ptr, ptr %2, align 8
  %5 = call noundef ptr @_ZN4llvm13simplify_typeIKPNS_5ValueEE18getSimplifiedValueERS3_(ptr noundef nonnull align 8 dereferenceable(8) %4)
  store ptr %5, ptr %3, align 8
  %6 = call noundef zeroext i1 @_ZN4llvm13isa_impl_wrapINS_8ConstantEPKNS_5ValueES4_E4doitERKS4_(ptr noundef nonnull align 8 dereferenceable(8) %3)
  ret i1 %6
}

; Function Attrs: mustprogress nounwind uwtable
define linkonce_odr hidden noundef ptr @_ZN4llvm8CastInfoINS_8ConstantEPNS_5ValueEvE6doCastERKS3_(ptr noundef nonnull align 8 dereferenceable(8) %0) #1 comdat align 2 {
  %2 = alloca ptr, align 8
  store ptr %0, ptr %2, align 8
  %3 = load ptr, ptr %2, align 8
  %4 = load ptr, ptr %3, align 8
  %5 = call noundef ptr @_ZN4llvm16cast_convert_valINS_8ConstantEPNS_5ValueES3_E4doitEPKS2_(ptr noundef %4)
  ret ptr %5
}

; Function Attrs: mustprogress nounwind uwtable
define linkonce_odr hidden noundef ptr @_ZN4llvm8CastInfoINS_8ConstantEPNS_5ValueEvE10castFailedEv() #1 comdat align 2 {
  ret ptr null
}

; Function Attrs: mustprogress nounwind uwtable
define linkonce_odr hidden noundef zeroext i1 @_ZN4llvm14CastIsPossibleINS_8ConstantEPNS_5ValueEvE10isPossibleERKS3_(ptr noundef nonnull align 8 dereferenceable(8) %0) #1 comdat align 2 {
  %2 = alloca ptr, align 8
  store ptr %0, ptr %2, align 8
  %3 = load ptr, ptr %2, align 8
  %4 = call noundef zeroext i1 @_ZN4llvm13isa_impl_wrapINS_8ConstantEKPNS_5ValueEPKS2_E4doitERS4_(ptr noundef nonnull align 8 dereferenceable(8) %3)
  ret i1 %4
}

; Function Attrs: mustprogress nounwind uwtable
define linkonce_odr hidden noundef ptr @_ZN4llvm8CastInfoINS_8ConstantEPNS_5ValueEvE16doCastIfPossibleERKS3_(ptr noundef nonnull align 8 dereferenceable(8) %0) #1 comdat align 2 {
  %2 = alloca ptr, align 8
  %3 = alloca ptr, align 8
  store ptr %0, ptr %3, align 8
  %4 = load ptr, ptr %3, align 8
  %5 = call noundef zeroext i1 @_ZN4llvm14CastIsPossibleINS_8ConstantEPNS_5ValueEvE10isPossibleERKS3_(ptr noundef nonnull align 8 dereferenceable(8) %4)
  br i1 %5, label %8, label %6

6:                                                ; preds = %1
  %7 = call noundef ptr @_ZN4llvm8CastInfoINS_8ConstantEPNS_5ValueEvE10castFailedEv()
  store ptr %7, ptr %2, align 8
  br label %11

8:                                                ; preds = %1
  %9 = load ptr, ptr %3, align 8
  %10 = call noundef ptr @_ZN4llvm8CastInfoINS_8ConstantEPNS_5ValueEvE6doCastERKS3_(ptr noundef nonnull align 8 dereferenceable(8) %9)
  store ptr %10, ptr %2, align 8
  br label %11

11:                                               ; preds = %8, %6
  %12 = load ptr, ptr %2, align 8
  ret ptr %12
}

; Function Attrs: mustprogress nounwind uwtable
define linkonce_odr hidden void @_ZN4llvm12PatternMatch10FNeg_matchINS0_7bind_tyINS_5ValueEEEEC2ERKS4_(ptr noundef nonnull align 8 dereferenceable(8) %0, ptr noundef nonnull align 8 dereferenceable(8) %1) unnamed_addr #1 comdat align 2 {
  %3 = alloca ptr, align 8
  %4 = alloca ptr, align 8
  store ptr %0, ptr %3, align 8
  store ptr %1, ptr %4, align 8
  %5 = load ptr, ptr %3, align 8
  %6 = getelementptr inbounds nuw %"struct.llvm::PatternMatch::FNeg_match.398", ptr %5, i32 0, i32 0
  %7 = load ptr, ptr %4, align 8
  call void @llvm.memcpy.p0.p0.i64(ptr align 8 %6, ptr align 8 %7, i64 8, i1 false)
  ret void
}

; Function Attrs: mustprogress nounwind uwtable
define linkonce_odr hidden void @_ZN4llvm12PatternMatch7bind_tyINS_5ValueEEC2ERPS2_(ptr noundef nonnull align 8 dereferenceable(8) %0, ptr noundef nonnull align 8 dereferenceable(8) %1) unnamed_addr #1 comdat align 2 {
  %3 = alloca ptr, align 8
  %4 = alloca ptr, align 8
  store ptr %0, ptr %3, align 8
  store ptr %1, ptr %4, align 8
  %5 = load ptr, ptr %3, align 8
  %6 = getelementptr inbounds nuw %"struct.llvm::PatternMatch::bind_ty", ptr %5, i32 0, i32 0
  %7 = load ptr, ptr %4, align 8
  store ptr %7, ptr %6, align 8
  ret void
}

; Function Attrs: mustprogress nounwind uwtable
define linkonce_odr hidden noundef ptr @_ZN4llvm8dyn_castINS_8ConstantENS_5ValueEEEDcPT0_(ptr noundef %0) #1 comdat {
  %2 = alloca ptr, align 8
  store ptr %0, ptr %2, align 8
  %3 = call noundef ptr @_ZN4llvm8CastInfoINS_8ConstantEPNS_5ValueEvE16doCastIfPossibleERKS3_(ptr noundef nonnull align 8 dereferenceable(8) %2)
  ret ptr %3
}

; Function Attrs: mustprogress nounwind uwtable
define linkonce_odr noundef zeroext i1 @_ZN4llvm12PatternMatch5matchINS_5ValueENS0_10FNeg_matchINS0_7bind_tyIS2_EEEEEEbPT_RKT0_(ptr noundef %0, ptr noundef nonnull align 8 dereferenceable(8) %1) #1 comdat {
  %3 = alloca ptr, align 8
  %4 = alloca ptr, align 8
  store ptr %0, ptr %3, align 8
  store ptr %1, ptr %4, align 8
  %5 = load ptr, ptr %4, align 8
  %6 = load ptr, ptr %3, align 8
  %7 = call noundef zeroext i1 @_ZN4llvm12PatternMatch10FNeg_matchINS0_7bind_tyINS_5ValueEEEE5matchIS3_EEbPT_(ptr noundef nonnull align 8 dereferenceable(8) %5, ptr noundef %6)
  ret i1 %7
}

; Function Attrs: mustprogress nounwind uwtable
define linkonce_odr hidden ptr @_ZN4llvm12PatternMatch6m_FNegINS0_7bind_tyINS_5ValueEEEEENS0_10FNeg_matchIT_EERKS6_(ptr noundef nonnull align 8 dereferenceable(8) %0) #1 comdat {
  %2 = alloca %"struct.llvm::PatternMatch::FNeg_match.398", align 8
  %3 = alloca ptr, align 8
  store ptr %0, ptr %3, align 8
  %4 = load ptr, ptr %3, align 8
  call void @_ZN4llvm12PatternMatch10FNeg_matchINS0_7bind_tyINS_5ValueEEEEC2ERKS4_(ptr noundef nonnull align 8 dereferenceable(8) %2, ptr noundef nonnull align 8 dereferenceable(8) %4)
  %5 = getelementptr inbounds nuw %"struct.llvm::PatternMatch::FNeg_match.398", ptr %2, i32 0, i32 0
  %6 = getelementptr inbounds nuw %"struct.llvm::PatternMatch::bind_ty", ptr %5, i32 0, i32 0
  %7 = load ptr, ptr %6, align 8
  ret ptr %7
}

; Function Attrs: mustprogress nounwind uwtable
define linkonce_odr hidden ptr @_ZN4llvm12PatternMatch7m_ValueERPNS_5ValueE(ptr noundef nonnull align 8 dereferenceable(8) %0) #1 comdat {
  %2 = alloca %"struct.llvm::PatternMatch::bind_ty", align 8
  %3 = alloca ptr, align 8
  store ptr %0, ptr %3, align 8
  %4 = load ptr, ptr %3, align 8
  call void @_ZN4llvm12PatternMatch7bind_tyINS_5ValueEEC2ERPS2_(ptr noundef nonnull align 8 dereferenceable(8) %2, ptr noundef nonnull align 8 dereferenceable(8) %4)
  %5 = getelementptr inbounds nuw %"struct.llvm::PatternMatch::bind_ty", ptr %2, i32 0, i32 0
  %6 = load ptr, ptr %5, align 8
  ret ptr %6
}

; Function Attrs: mustprogress nounwind uwtable
define internal noundef ptr @_ZL12foldConstantN4llvm11Instruction8UnaryOpsERPNS_5ValueERKNS_13SimplifyQueryE(i32 noundef %0, ptr noundef nonnull align 8 dereferenceable(8) %1, ptr noundef nonnull align 8 dereferenceable(58) %2) #1 {
  %4 = alloca ptr, align 8
  %5 = alloca i32, align 4
  %6 = alloca ptr, align 8
  %7 = alloca ptr, align 8
  %8 = alloca ptr, align 8
  store i32 %0, ptr %5, align 4
  store ptr %1, ptr %6, align 8
  store ptr %2, ptr %7, align 8
  %9 = load ptr, ptr %6, align 8
  %10 = load ptr, ptr %9, align 8
  %11 = call noundef ptr @_ZN4llvm8dyn_castINS_8ConstantENS_5ValueEEEDcPT0_(ptr noundef %10)
  store ptr %11, ptr %8, align 8
  %12 = load ptr, ptr %8, align 8
  %13 = icmp ne ptr %12, null
  br i1 %13, label %14, label %21

14:                                               ; preds = %3
  %15 = load i32, ptr %5, align 4
  %16 = load ptr, ptr %8, align 8
  %17 = load ptr, ptr %7, align 8
  %18 = getelementptr inbounds nuw %"struct.llvm::SimplifyQuery", ptr %17, i32 0, i32 0
  %19 = load ptr, ptr %18, align 8
  %20 = call noundef ptr @_ZN4llvm26ConstantFoldUnaryOpOperandEjPNS_8ConstantERKNS_10DataLayoutE(i32 noundef %15, ptr noundef %16, ptr noundef nonnull align 8 dereferenceable(512) %19)
  store ptr %20, ptr %4, align 8
  br label %22

21:                                               ; preds = %3
  store ptr null, ptr %4, align 8
  br label %22

22:                                               ; preds = %21, %14
  %23 = load ptr, ptr %4, align 8
  ret ptr %23
}

; Function Attrs: mustprogress nounwind uwtable
define internal noundef ptr @_ZL16simplifyFNegInstPN4llvm5ValueENS_13FastMathFlagsERKNS_13SimplifyQueryEj(ptr noundef %0, i32 %1, ptr noundef nonnull align 8 dereferenceable(58) %2, i32 noundef %3) #1 {
  %5 = alloca ptr, align 8
  %6 = alloca %"class.llvm::FastMathFlags", align 4
  %7 = alloca ptr, align 8
  %8 = alloca ptr, align 8
  %9 = alloca i32, align 4
  %10 = alloca ptr, align 8
  %11 = alloca ptr, align 8
  %12 = alloca %"struct.llvm::PatternMatch::FNeg_match.398", align 8
  %13 = alloca %"struct.llvm::PatternMatch::bind_ty", align 8
  %14 = getelementptr inbounds nuw %"class.llvm::FastMathFlags", ptr %6, i32 0, i32 0
  store i32 %1, ptr %14, align 4
  store ptr %0, ptr %7, align 8
  store ptr %2, ptr %8, align 8
  store i32 %3, ptr %9, align 4
  %15 = load ptr, ptr %8, align 8
  %16 = call noundef ptr @_ZL12foldConstantN4llvm11Instruction8UnaryOpsERPNS_5ValueERKNS_13SimplifyQueryE(i32 noundef 12, ptr noundef nonnull align 8 dereferenceable(8) %7, ptr noundef nonnull align 8 dereferenceable(58) %15)
  store ptr %16, ptr %10, align 8
  %17 = load ptr, ptr %10, align 8
  %18 = icmp ne ptr %17, null
  br i1 %18, label %19, label %21

19:                                               ; preds = %4
  %20 = load ptr, ptr %10, align 8
  store ptr %20, ptr %5, align 8
  br label %32

21:                                               ; preds = %4
  %22 = load ptr, ptr %7, align 8
  %23 = call ptr @_ZN4llvm12PatternMatch7m_ValueERPNS_5ValueE(ptr noundef nonnull align 8 dereferenceable(8) %11)
  %24 = getelementptr inbounds nuw %"struct.llvm::PatternMatch::bind_ty", ptr %13, i32 0, i32 0
  store ptr %23, ptr %24, align 8
  %25 = call ptr @_ZN4llvm12PatternMatch6m_FNegINS0_7bind_tyINS_5ValueEEEEENS0_10FNeg_matchIT_EERKS6_(ptr noundef nonnull align 8 dereferenceable(8) %13)
  %26 = getelementptr inbounds nuw %"struct.llvm::PatternMatch::FNeg_match.398", ptr %12, i32 0, i32 0
  %27 = getelementptr inbounds nuw %"struct.llvm::PatternMatch::bind_ty", ptr %26, i32 0, i32 0
  store ptr %25, ptr %27, align 8
  %28 = call noundef zeroext i1 @_ZN4llvm12PatternMatch5matchINS_5ValueENS0_10FNeg_matchINS0_7bind_tyIS2_EEEEEEbPT_RKT0_(ptr noundef %22, ptr noundef nonnull align 8 dereferenceable(8) %12)
  br i1 %28, label %29, label %31

29:                                               ; preds = %21
  %30 = load ptr, ptr %11, align 8
  store ptr %30, ptr %5, align 8
  br label %32

31:                                               ; preds = %21
  store ptr null, ptr %5, align 8
  br label %32

32:                                               ; preds = %31, %29, %19
  %33 = load ptr, ptr %5, align 8
  ret ptr %33
}

; Function Attrs: mustprogress nounwind uwtable
define linkonce_odr hidden void @_ZN4llvm13FastMathFlagsC2Ev(ptr noundef nonnull align 4 dereferenceable(4) %0) unnamed_addr #1 comdat align 2 {
  %2 = alloca ptr, align 8
  store ptr %0, ptr %2, align 8
  %3 = load ptr, ptr %2, align 8
  %4 = getelementptr inbounds nuw %"class.llvm::FastMathFlags", ptr %3, i32 0, i32 0
  store i32 0, ptr %4, align 4
  ret void
}

; Function Attrs: mustprogress nounwind uwtable
define internal noundef ptr @_ZL12simplifyUnOpjPN4llvm5ValueERKNS_13SimplifyQueryEj(i32 noundef %0, ptr noundef %1, ptr noundef nonnull align 8 dereferenceable(58) %2, i32 noundef %3) #1 {
  %5 = alloca i32, align 4
  %6 = alloca ptr, align 8
  %7 = alloca ptr, align 8
  %8 = alloca i32, align 4
  %9 = alloca %"class.llvm::FastMathFlags", align 4
  store i32 %0, ptr %5, align 4
  store ptr %1, ptr %6, align 8
  store ptr %2, ptr %7, align 8
  store i32 %3, ptr %8, align 4
  %10 = load i32, ptr %5, align 4
  switch i32 %10, label %18 [
    i32 12, label %11
  ]

11:                                               ; preds = %4
  %12 = load ptr, ptr %6, align 8
  call void @llvm.memset.p0.i64(ptr align 4 %9, i8 0, i64 4, i1 false)
  call void @_ZN4llvm13FastMathFlagsC2Ev(ptr noundef nonnull align 4 dereferenceable(4) %9) #13
  %13 = load ptr, ptr %7, align 8
  %14 = load i32, ptr %8, align 4
  %15 = getelementptr inbounds nuw %"class.llvm::FastMathFlags", ptr %9, i32 0, i32 0
  %16 = load i32, ptr %15, align 4
  %17 = call noundef ptr @_ZL16simplifyFNegInstPN4llvm5ValueENS_13FastMathFlagsERKNS_13SimplifyQueryEj(ptr noundef %12, i32 %16, ptr noundef nonnull align 8 dereferenceable(58) %13, i32 noundef %14)
  ret ptr %17

18:                                               ; preds = %4
  unreachable
}

; Function Attrs: mustprogress nounwind uwtable
define dso_local noundef ptr @_ZN4llvm12simplifyUnOpEjPNS_5ValueERKNS_13SimplifyQueryE(i32 noundef %0, ptr noundef %1, ptr noundef nonnull align 8 dereferenceable(58) %2) #1 {
  %4 = alloca i32, align 4
  %5 = alloca ptr, align 8
  %6 = alloca ptr, align 8
  store i32 %0, ptr %4, align 4
  store ptr %1, ptr %5, align 8
  store ptr %2, ptr %6, align 8
  %7 = load i32, ptr %4, align 4
  %8 = load ptr, ptr %5, align 8
  %9 = load ptr, ptr %6, align 8
  %10 = call noundef ptr @_ZL12simplifyUnOpjPN4llvm5ValueERKNS_13SimplifyQueryEj(i32 noundef %7, ptr noundef %8, ptr noundef nonnull align 8 dereferenceable(58) %9, i32 noundef 3)
  ret ptr %10
}